#include <math.h>
#include <stdio.h>
#include <stdlib.h>
#include <string.h>

int main()
{
int r,c,i,j,a[101][101],p;
scanf("%d%d",&r,&c);
for(i=1;i<=r;i++)
{
  for(j=1;j<=c;j++)
  {
   scanf("%d",&a[i][j]);
  }
}
for(p=2;p<=r+c;p++)
{
if(p-1<=c)
{
i=1;
j=p-i;
}
else
{
	j=c;
	i=p-j;
}
while (i>=1&&j>=1&&i<=r&&j<=c)
{
	printf("%d\n",a[i][j]);
	i++;
	j--;
}
}
return 0;
}

