; ModuleID = 'source-C-CXX/3/1253.c'
source_filename = "source-C-CXX/3/1253.c"
target datalayout = "e-m:e-p270:32:32-p271:32:32-p272:64:64-i64:64-f80:128-n8:16:32:64-S128"
target triple = "x86_64-pc-linux-gnu"

@.str = private unnamed_addr constant [5 x i8] c"%d%d\00", align 1
@.str.1 = private unnamed_addr constant [3 x i8] c"%d\00", align 1
@.str.2 = private unnamed_addr constant [4 x i8] c"%d\0A\00", align 1

; Function Attrs: nofree nounwind sspstrong uwtable
define dso_local i32 @main() local_unnamed_addr #0 {
  %1 = alloca i32, align 4
  %2 = alloca i32, align 4
  %3 = alloca [101 x [101 x i32]], align 16
  %4 = bitcast i32* %1 to i8*
  call void @llvm.lifetime.start.p0i8(i64 4, i8* nonnull %4) #4
  %5 = bitcast i32* %2 to i8*
  call void @llvm.lifetime.start.p0i8(i64 4, i8* nonnull %5) #4
  %6 = bitcast [101 x [101 x i32]]* %3 to i8*
  call void @llvm.lifetime.start.p0i8(i64 40804, i8* nonnull %6) #4
  %7 = call i32 (i8*, ...) @__isoc99_scanf(i8* getelementptr inbounds ([5 x i8], [5 x i8]* @.str, i64 0, i64 0), i32* nonnull %1, i32* nonnull %2)
  %8 = load i32, i32* %1, align 4, !tbaa !5
  %9 = icmp slt i32 %8, 1
  %10 = load i32, i32* %2, align 4, !tbaa !5
  %11 = icmp slt i32 %10, 1
  %12 = select i1 %9, i1 true, i1 %11
  br i1 %12, label %18, label %13

13:                                               ; preds = %0, %33
  %14 = phi i32 [ %34, %33 ], [ %8, %0 ]
  %15 = phi i32 [ %35, %33 ], [ %10, %0 ]
  %16 = phi i64 [ %36, %33 ], [ 1, %0 ]
  %17 = icmp slt i32 %15, 1
  br i1 %17, label %33, label %23

18:                                               ; preds = %33, %0
  %19 = phi i32 [ %10, %0 ], [ %35, %33 ]
  %20 = phi i32 [ %8, %0 ], [ %34, %33 ]
  %21 = add nsw i32 %19, %20
  %22 = icmp slt i32 %21, 2
  br i1 %22, label %85, label %39

23:                                               ; preds = %13, %23
  %24 = phi i64 [ %27, %23 ], [ 1, %13 ]
  %25 = getelementptr inbounds [101 x [101 x i32]], [101 x [101 x i32]]* %3, i64 0, i64 %16, i64 %24
  %26 = call i32 (i8*, ...) @__isoc99_scanf(i8* getelementptr inbounds ([3 x i8], [3 x i8]* @.str.1, i64 0, i64 0), i32* nonnull %25)
  %27 = add nuw nsw i64 %24, 1
  %28 = load i32, i32* %2, align 4, !tbaa !5
  %29 = sext i32 %28 to i64
  %30 = icmp slt i64 %24, %29
  br i1 %30, label %23, label %31, !llvm.loop !9

31:                                               ; preds = %23
  %32 = load i32, i32* %1, align 4, !tbaa !5
  br label %33

33:                                               ; preds = %31, %13
  %34 = phi i32 [ %32, %31 ], [ %14, %13 ]
  %35 = phi i32 [ %28, %31 ], [ %15, %13 ]
  %36 = add nuw nsw i64 %16, 1
  %37 = sext i32 %34 to i64
  %38 = icmp slt i64 %16, %37
  br i1 %38, label %13, label %18, !llvm.loop !11

39:                                               ; preds = %18, %78
  %40 = phi i32 [ %79, %78 ], [ %19, %18 ]
  %41 = phi i32 [ %80, %78 ], [ %20, %18 ]
  %42 = phi i32 [ %84, %78 ], [ 1, %18 ]
  %43 = phi i32 [ %81, %78 ], [ 2, %18 ]
  %44 = add nsw i32 %43, -1
  %45 = icmp sgt i32 %44, %40
  %46 = sub nsw i32 %43, %40
  %47 = select i1 %45, i32 %46, i32 1
  %48 = select i1 %45, i32 %40, i32 %44
  %49 = icmp slt i32 %47, 1
  %50 = icmp slt i32 %48, 1
  %51 = select i1 %49, i1 true, i1 %50
  %52 = icmp sgt i32 %47, %41
  %53 = select i1 %51, i1 true, i1 %52
  br i1 %53, label %78, label %54

54:                                               ; preds = %39
  %55 = call i32 @llvm.smin.i32(i32 %40, i32 %42)
  %56 = sext i32 %55 to i64
  %57 = call i32 @llvm.smax.i32(i32 %40, i32 %42)
  %58 = add nuw i32 %57, 1
  %59 = sub i32 %58, %40
  %60 = sext i32 %59 to i64
  br label %61

61:                                               ; preds = %54, %61
  %62 = phi i64 [ %60, %54 ], [ %67, %61 ]
  %63 = phi i64 [ %56, %54 ], [ %68, %61 ]
  %64 = getelementptr inbounds [101 x [101 x i32]], [101 x [101 x i32]]* %3, i64 0, i64 %62, i64 %63
  %65 = load i32, i32* %64, align 4, !tbaa !5
  %66 = call i32 (i8*, ...) @printf(i8* nonnull dereferenceable(1) getelementptr inbounds ([4 x i8], [4 x i8]* @.str.2, i64 0, i64 0), i32 %65)
  %67 = add nsw i64 %62, 1
  %68 = add nsw i64 %63, -1
  %69 = icmp slt i64 %63, 2
  %70 = load i32, i32* %1, align 4
  %71 = sext i32 %70 to i64
  %72 = icmp sge i64 %62, %71
  %73 = select i1 %69, i1 true, i1 %72
  %74 = load i32, i32* %2, align 4
  %75 = sext i32 %74 to i64
  %76 = icmp sgt i64 %68, %75
  %77 = select i1 %73, i1 true, i1 %76
  br i1 %77, label %78, label %61, !llvm.loop !13

78:                                               ; preds = %61, %39
  %79 = phi i32 [ %40, %39 ], [ %74, %61 ]
  %80 = phi i32 [ %41, %39 ], [ %70, %61 ]
  %81 = add nuw nsw i32 %43, 1
  %82 = add nsw i32 %79, %80
  %83 = icmp slt i32 %43, %82
  %84 = add nuw nsw i32 %42, 1
  br i1 %83, label %39, label %85, !llvm.loop !14

85:                                               ; preds = %78, %18
  call void @llvm.lifetime.end.p0i8(i64 40804, i8* nonnull %6) #4
  call void @llvm.lifetime.end.p0i8(i64 4, i8* nonnull %5) #4
  call void @llvm.lifetime.end.p0i8(i64 4, i8* nonnull %4) #4
  ret i32 0
}

; Function Attrs: argmemonly mustprogress nofree nosync nounwind willreturn
declare void @llvm.lifetime.start.p0i8(i64 immarg, i8* nocapture) #1

; Function Attrs: nofree nounwind
declare noundef i32 @__isoc99_scanf(i8* nocapture noundef readonly, ...) local_unnamed_addr #2

; Function Attrs: nofree nounwind
declare noundef i32 @printf(i8* nocapture noundef readonly, ...) local_unnamed_addr #2

; Function Attrs: argmemonly mustprogress nofree nosync nounwind willreturn
declare void @llvm.lifetime.end.p0i8(i64 immarg, i8* nocapture) #1

; Function Attrs: nofree nosync nounwind readnone speculatable willreturn
declare i32 @llvm.smin.i32(i32, i32) #3

; Function Attrs: nofree nosync nounwind readnone speculatable willreturn
declare i32 @llvm.smax.i32(i32, i32) #3


!llvm.module.flags = !{!0, !1, !2, !3}
!llvm.ident = !{!4}

!0 = !{i32 1, !"wchar_size", i32 4}
!1 = !{i32 7, !"PIC Level", i32 2}
!2 = !{i32 7, !"PIE Level", i32 2}
!3 = !{i32 7, !"uwtable", i32 1}
!4 = !{!"clang version 13.0.0"}
!5 = !{!6, !6, i64 0}
!6 = !{!"int", !7, i64 0}
!7 = !{!"omnipotent char", !8, i64 0}
!8 = !{!"Simple C/C++ TBAA"}
!9 = distinct !{!9, !10}
!10 = !{!"llvm.loop.mustprogress"}
!11 = distinct !{!11, !10, !12}
!12 = !{!"llvm.loop.unswitch.partial.disable"}
!13 = distinct !{!13, !10}
!14 = distinct !{!14, !10}
